target datalayout = "e-m:e-p270:32:32-p271:32:32-p272:64:64-i64:64-i128:128-f80:128-n8:16:32:64-S128"
target triple = "x86_64-pc-linux-gnu"

%"struct.perf::CvtColorInfo" = type { i32, i32, i32 }

; Function Attrs: mustprogress uwtable
define hidden void @_ZN4perf7PrintToERKNS_12CvtColorInfoEPSo(ptr noundef nonnull align 4 dereferenceable(12) %0, ptr noundef %1) #5 {
  %3 = alloca ptr, align 8
  %4 = alloca ptr, align 8
  store ptr %0, ptr %3, align 8
  store ptr %1, ptr %4, align 8
  %5 = load ptr, ptr %4, align 8
  %6 = load ptr, ptr %3, align 8
  %7 = getelementptr inbounds %"struct.perf::CvtColorInfo", ptr %6, i32 0, i32 2
  %8 = load i32, ptr %7, align 4
  %9 = sext i32 %8 to i64
  %10 = getelementptr inbounds [128 x ptr], ptr @_ZZN4perf7PrintToERKNS_12CvtColorInfoEPSoE3str, i64 0, i64 %9
  %11 = load ptr, ptr %10, align 8
  %12 = call noundef nonnull align 8 dereferenceable(8) ptr @_ZStlsISt11char_traitsIcEERSt13basic_ostreamIcT_ES5_PKc(ptr noundef nonnull align 8 dereferenceable(8) %5, ptr noundef %11)
  ret void
}